Certificate:
    Data:
        Version: 3 (0x2)
        Serial Number: 1 (0x1)
    Signature Algorithm: sha256WithRSAEncryption
        Issuer: C=US, ST=Maryland, L=Baltimore, O=Test CA, Limited, OU=Server Research Department, CN=Test CA/emailAddress=test@example.com
        Validity
            Not Before: Apr 13 15:03:57 2023 GMT
            Not After : Apr 11 15:03:57 2030 GMT
        Subject: C=US, ST=MD, L=Baltimore, O=Test Server, Limited, CN=Test Server
        Subject Public Key Info:
            Public Key Algorithm: rsaEncryption
                Public-Key: (2048 bit)
                Modulus:
                    00:be:a5:a9:db:66:50:05:54:02:b1:37:ff:61:7c:
                    be:54:2e:89:eb:1e:52:26:66:ea:82:a6:db:43:91:
                    b9:20:92:c9:d1:ae:52:1e:6c:fd:59:c4:47:c1:e0:
                    a3:ab:c3:8d:f9:a4:3b:7c:a1:7b:3a:18:9b:d4:c5:
                    c7:da:bf:04:ef:9b:ba:5f:8c:58:17:c9:bf:06:f6:
                    b1:fc:4c:ec:f0:72:53:78:a6:80:37:95:83:58:66:
                    e5:60:6d:e0:15:0e:9f:be:03:4c:7c:34:02:56:85:
                    89:17:f7:cf:d7:d7:0c:79:d5:08:67:13:6d:44:9f:
                    09:80:b5:d6:65:ec:22:82:5a:18:6b:e8:ca:a9:d3:
                    9d:2a:14:ae:76:be:c3:9c:d0:b2:ff:bd:57:3b:87:
                    fc:0e:57:dd:e1:ba:cd:b5:01:30:49:c3:a8:b9:3c:
                    a4:66:ea:ed:e2:98:1f:6f:39:e3:cb:c0:d0:b6:ad:
                    92:25:85:5b:5e:35:f2:5a:0d:a3:0e:16:f3:ee:96:
                    c0:51:bb:9a:cd:19:10:d6:f3:89:35:f9:f1:6c:5c:
                    4d:ac:31:5f:42:ce:38:4d:d1:7d:62:5d:46:67:f4:
                    8a:bf:1b:26:0b:1d:d6:8f:73:44:1b:f8:c9:b4:f5:
                    1c:22:5f:75:09:85:49:7b:b9:64:d3:4a:70:c3:a7:
                    dc:bb
                Exponent: 65537 (0x10001)
        X509v3 extensions:
            X509v3 Subject Key Identifier:
                30:E2:4B:26:DB:9D:E7:33:9E:BB:7A:B3:8D:76:67:9F:2A:3F:94:ED
            X509v3 Authority Key Identifier:
                keyid:11:3B:F9:7E:BE:CB:06:55:8D:30:EB:DA:12:8E:38:87:77:42:64:46

            X509v3 Basic Constraints:
                CA:FALSE
            X509v3 Key Usage:
                Digital Signature, Key Encipherment
            X509v3 Subject Alternative Name:
                DNS:example.com, DNS:webapp.example.com, DNS:virtual-server.example.com, DNS:ftp.example.com
            Netscape Comment:
                OpenSSL Generated Certificate
    Signature Algorithm: sha256WithRSAEncryption
         64:10:7b:5d:fa:7e:dc:2f:b0:41:20:58:e0:aa:ee:29:38:0a:
         e4:84:e6:a2:14:fe:d8:4d:fd:35:ee:fe:5e:6c:c0:70:89:b9:
         09:aa:f5:33:e9:ce:d2:d1:fd:28:81:ce:ca:c4:bc:b3:7d:1e:
         7a:be:b7:9c:3b:15:7d:be:73:5d:f0:a1:a8:69:09:b7:52:f7:
         2e:8d:ba:12:97:d0:f7:07:3d:e1:57:0f:3a:b3:a1:eb:ea:ed:
         04:01:ac:a9:ce:b6:46:7f:22:b1:e1:58:7f:55:48:35:cc:79:
         8a:44:1b:ef:f7:80:1c:ae:be:4c:4e:f7:dd:d8:ce:f4:82:e6:
         38:07:ea:20:8b:13:96:dc:98:39:9d:1e:a1:61:eb:c9:58:f6:
         31:35:e2:e6:73:de:ad:67:58:4c:5e:3e:ca:ce:39:bc:31:e2:
         d3:95:f8:ad:e7:43:76:41:f1:66:ca:92:8a:cb:bc:4a:9d:50:
         8e:57:8a:55:25:1b:db:d2:55:2f:a7:9e:f9:45:b5:aa:92:4e:
         9c:6b:ef:99:73:2f:ce:84:4e:b6:f7:c4:9f:18:90:4f:2a:21:
         7e:ca:8e:27:41:ec:4d:5f:49:69:bb:68:0e:fe:a4:d9:bb:2c:
         fc:be:80:da:80:c0:2f:d5:5e:ef:f4:1f:23:c5:2f:53:4a:77:
         77:b2:97:b0:b9:58:77:c5:4d:67:3b:83:27:61:b8:64:b3:a0:
         eb:32:28:f5:13:43:ee:11:18:56:a9:4b:cc:52:e9:24:5a:5c:
         9a:64:8a:a4:54:a1:3a:1d:2d:99:94:99:8c:ec:c1:44:c8:24:
         d8:57:1b:ce:08:22:da:c1:c6:f9:ee:60:48:32:31:65:83:a4:
         a2:2f:e2:d8:d6:1c:3a:5b:0e:56:04:cc:cd:3a:96:5c:bc:fd:
         02:8c:c3:31:7f:b3:07:5c:e1:67:30:01:15:b0:78:d2:f5:8e:
         28:75:4e:12:ca:e6:86:a3:41:01:43:a5:aa:b9:ec:c0:f4:da:
         30:e6:33:e8:20:bf:93:43:10:de:76:6c:88:18:c9:32:72:a4:
         75:39:21:d7:d8:6f:37:58:0a:b6:34:8d:7b:04:e8:1f:31:8d:
         10:34:9a:4a:15:e9:1c:bb:76:c8:75:11:63:e6:93:fd:e3:6e:
         b8:33:d2:7e:07:bb:2d:02:63:12:ca:da:de:d8:ee:f0:be:62:
         26:4a:2b:fb:40:52:bd:b3:4f:63:03:2e:18:ce:53:04:1d:fb:
         e6:e3:42:d9:85:e2:c7:f0:21:9d:47:68:9e:0b:86:92:14:3b:
         4a:db:a1:fc:c0:45:06:58:f6:ac:7a:82:59:54:3b:2e:9d:34:
         6e:89:c6:54:20:11:16:75
-----BEGIN CERTIFICATE-----
MIIFaTCCA1GgAwIBAgIBATANBgkqhkiG9w0BAQsFADCBpzELMAkGA1UEBhMCVVMx
ETAPBgNVBAgMCE1hcnlsYW5kMRIwEAYDVQQHDAlCYWx0aW1vcmUxGTAXBgNVBAoM
EFRlc3QgQ0EsIExpbWl0ZWQxIzAhBgNVBAsMGlNlcnZlciBSZXNlYXJjaCBEZXBh
cnRtZW50MRAwDgYDVQQDDAdUZXN0IENBMR8wHQYJKoZIhvcNAQkBFhB0ZXN0QGV4
YW1wbGUuY29tMB4XDTIzMDQxMzE1MDM1N1oXDTMwMDQxMTE1MDM1N1owYzELMAkG
A1UEBhMCVVMxCzAJBgNVBAgMAk1EMRIwEAYDVQQHDAlCYWx0aW1vcmUxHTAbBgNV
BAoMFFRlc3QgU2VydmVyLCBMaW1pdGVkMRQwEgYDVQQDDAtUZXN0IFNlcnZlcjCC
ASIwDQYJKoZIhvcNAQEBBQADggEPADCCAQoCggEBAL6lqdtmUAVUArE3/2F8vlQu
ieseUiZm6oKm20ORuSCSydGuUh5s/VnER8Hgo6vDjfmkO3yhezoYm9TFx9q/BO+b
ul+MWBfJvwb2sfxM7PByU3imgDeVg1hm5WBt4BUOn74DTHw0AlaFiRf3z9fXDHnV
CGcTbUSfCYC11mXsIoJaGGvoyqnTnSoUrna+w5zQsv+9VzuH/A5X3eG6zbUBMEnD
qLk8pGbq7eKYH28548vA0LatkiWFW1418loNow4W8+6WwFG7ms0ZENbziTX58Wxc
TawxX0LOOE3RfWJdRmf0ir8bJgsd1o9zRBv4ybT1HCJfdQmFSXu5ZNNKcMOn3LsC
AwEAAaOB4jCB3zAdBgNVHQ4EFgQUMOJLJtud5zOeu3qzjXZnnyo/lO0wHwYDVR0j
BBgwFoAUETv5fr7LBlWNMOvaEo44h3dCZEYwCQYDVR0TBAIwADALBgNVHQ8EBAMC
BaAwVwYDVR0RBFAwToILZXhhbXBsZS5jb22CEndlYmFwcC5leGFtcGxlLmNvbYIa
dmlydHVhbC1zZXJ2ZXIuZXhhbXBsZS5jb22CD2Z0cC5leGFtcGxlLmNvbTAsBglg
hkgBhvhCAQ0EHxYdT3BlblNTTCBHZW5lcmF0ZWQgQ2VydGlmaWNhdGUwDQYJKoZI
hvcNAQELBQADggIBAGQQe136ftwvsEEgWOCq7ik4CuSE5qIU/thN/TXu/l5swHCJ
uQmq9TPpztLR/SiBzsrEvLN9Hnq+t5w7FX2+c13woahpCbdS9y6NuhKX0PcHPeFX
Dzqzoevq7QQBrKnOtkZ/IrHhWH9VSDXMeYpEG+/3gByuvkxO993YzvSC5jgH6iCL
E5bcmDmdHqFh68lY9jE14uZz3q1nWExePsrOObwx4tOV+K3nQ3ZB8WbKkorLvEqd
UI5XilUlG9vSVS+nnvlFtaqSTpxr75lzL86ETrb3xJ8YkE8qIX7KjidB7E1fSWm7
aA7+pNm7LPy+gNqAwC/VXu/0HyPFL1NKd3eyl7C5WHfFTWc7gydhuGSzoOsyKPUT
Q+4RGFapS8xS6SRaXJpkiqRUoTodLZmUmYzswUTIJNhXG84IItrBxvnuYEgyMWWD
pKIv4tjWHDpbDlYEzM06lly8/QKMwzF/swdc4WcwARWweNL1jih1ThLK5oajQQFD
paq57MD02jDmM+ggv5NDEN52bIgYyTJypHU5IdfYbzdYCrY0jXsE6B8xjRA0mkoV
6Ry7dsh1EWPmk/3jbrgz0n4Huy0CYxLK2t7Y7vC+YiZKK/tAUr2zT2MDLhjOUwQd
++bjQtmF4sfwIZ1HaJ4LhpIUO0rbofzARQZY9qx6gllUOy6dNG6JxlQgERZ1
-----END CERTIFICATE-----
