Certificate:
    Data:
        Version: 3 (0x2)
        Serial Number: 1 (0x1)
    Signature Algorithm: sha256WithRSAEncryption
        Issuer: C=US, ST=Maryland, L=Baltimore, O=Test CA, Limited, OU=Server Research Department, CN=Test CA/emailAddress=test@example.com
        Validity
            Not Before: Mar 13 17:58:36 2023 GMT
            Not After : Mar 12 17:58:36 2024 GMT
        Subject: C=US, ST=MD, L=Baltimore, O=Test Server, Limited, CN=Test Server
        Subject Public Key Info:
            Public Key Algorithm: rsaEncryption
                Public-Key: (2048 bit)
                Modulus:
                    00:a7:85:20:1a:81:39:bf:55:a7:2b:2b:c7:bf:fa:
                    9f:e2:26:7e:f2:21:61:fa:d9:39:4e:ab:0e:38:6e:
                    fe:5d:e2:5a:fc:99:1b:42:30:b7:ee:21:50:4b:cc:
                    79:bd:ee:9f:2c:5b:69:76:99:b5:00:69:4f:9c:70:
                    7b:9e:4e:be:2e:63:d0:69:ec:bc:b2:4d:ba:40:f4:
                    00:38:0a:75:26:8a:17:9f:e5:b6:37:9e:3e:34:da:
                    1e:52:7f:e8:88:8b:30:26:3f:1e:5d:b3:0d:1a:c8:
                    70:02:65:ef:ad:d1:66:a9:e3:eb:d5:2d:02:98:5c:
                    54:e1:e2:91:30:57:68:7e:f3:c2:8d:14:9a:c7:19:
                    0e:3f:af:03:24:e1:0f:c2:7d:22:b7:6b:36:c2:fd:
                    4c:e1:a9:d9:1f:fc:ec:05:c3:95:dd:17:96:9e:d0:
                    99:30:2d:07:6f:b7:6a:ea:11:63:b6:b2:09:50:1c:
                    35:83:a6:90:95:c2:c1:73:6a:5d:87:ad:27:0f:b1:
                    51:a3:73:c4:b5:2b:05:f8:3b:4a:63:1c:dd:dd:b7:
                    2f:b4:58:49:42:3f:7e:4a:3e:89:68:7f:06:b5:52:
                    04:3f:8c:db:7e:ce:5e:1e:64:39:ad:d0:93:24:f7:
                    55:c8:aa:4e:85:a1:5b:a5:8d:44:cf:15:1e:6a:b1:
                    00:ff
                Exponent: 65537 (0x10001)
        X509v3 extensions:
            X509v3 Subject Key Identifier:
                60:B1:14:DA:79:DA:4E:5C:A7:8F:C9:E1:4F:53:E4:0A:03:71:0F:22
            X509v3 Authority Key Identifier:
                keyid:90:AA:F8:42:B6:84:01:09:18:39:76:A1:59:BF:19:29:04:94:6C:2B

            X509v3 Basic Constraints:
                CA:FALSE
            X509v3 Key Usage:
                Digital Signature, Key Encipherment
            X509v3 Subject Alternative Name:
                DNS:example.com, DNS:webapp.example.com, DNS:mail.example.com, DNS:ftp.example.com
            Netscape Comment:
                OpenSSL Generated Certificate
    Signature Algorithm: sha256WithRSAEncryption
         44:6a:06:f7:ba:cb:1d:fa:c9:bf:ab:62:7c:f0:e3:2c:a3:11:
         2a:aa:17:85:3a:b7:ba:0f:ab:03:65:63:a8:a8:d4:33:a6:85:
         16:ce:b6:96:3b:dc:d2:c2:8a:36:75:f5:7b:e6:a8:9b:1d:e7:
         c6:fb:24:97:51:47:df:e2:ae:7b:76:0f:ef:29:aa:f5:1f:14:
         b4:89:2f:16:51:f8:19:05:35:43:c4:ea:2b:69:7d:07:56:39:
         73:56:bf:86:6b:5a:90:32:2b:0a:3a:26:92:f9:01:37:30:4d:
         13:4f:f5:c6:3b:dc:23:f6:cb:4e:f0:0a:25:75:0b:26:92:70:
         12:ec:af:1b:1b:21:25:bf:5b:0c:81:97:2b:22:57:c2:5a:c7:
         6a:c6:1d:e8:f9:b9:ae:8e:ca:51:14:4f:7e:d4:21:43:a9:f7:
         43:87:53:83:7e:6e:e5:04:65:72:09:f6:b0:f6:45:c7:9c:31:
         03:88:bb:56:3d:c6:a8:fa:2f:f3:4c:92:5a:89:a1:5c:2e:14:
         dd:8f:1b:7f:67:a3:63:52:11:20:1a:5b:a9:a4:68:80:ec:4b:
         ee:40:f6:b2:c8:a1:d5:d1:af:eb:de:3d:c8:cb:f2:75:6e:12:
         53:1b:70:f9:db:ef:4d:e4:76:17:80:7a:4f:be:5f:b2:dc:33:
         85:81:fc:27:8f:da:cd:dd:4c:bd:31:50:eb:4a:cb:db:9b:c2:
         1c:db:43:86:e1:ca:15:1d:58:47:33:14:9a:80:7e:53:8b:52:
         1d:f9:98:84:10:df:5a:d7:0e:ef:c7:6d:aa:14:f0:09:fa:67:
         94:50:8f:d5:e1:07:5c:8b:bb:2f:73:49:50:ef:1e:d9:12:27:
         20:fb:bb:52:70:0c:d6:00:d2:bd:62:ff:1d:8c:07:91:c4:34:
         65:dd:9b:f1:40:67:db:d7:ad:d1:7a:96:f4:61:91:42:f4:9d:
         a4:70:a8:31:70:97:1a:19:9d:ca:0d:41:b4:cc:95:0d:00:0b:
         6b:a0:28:ce:74:ee:69:73:b3:fc:58:13:7b:40:9b:29:99:94:
         ba:26:91:20:33:89:44:46:58:b3:36:be:e3:18:20:6b:52:3c:
         7a:90:5f:82:a5:aa:f0:cc:6e:4d:26:9d:6e:2d:b6:2c:a6:7c:
         80:a9:d6:9d:34:e3:ac:bb:f0:e8:78:8d:93:2f:6f:31:3f:5f:
         91:5c:fc:d8:8c:bc:5a:8e:f0:67:c1:df:6b:08:5e:34:56:93:
         19:6a:c0:51:a4:9b:b3:3f:38:2e:c1:17:45:00:74:d9:3d:45:
         b2:1b:76:e8:52:4f:e6:1f:7e:62:c7:b6:82:78:4e:40:56:cf:
         6b:93:f8:7d:be:27:0a:f2
-----BEGIN CERTIFICATE-----
MIIFXzCCA0egAwIBAgIBATANBgkqhkiG9w0BAQsFADCBpzELMAkGA1UEBhMCVVMx
ETAPBgNVBAgMCE1hcnlsYW5kMRIwEAYDVQQHDAlCYWx0aW1vcmUxGTAXBgNVBAoM
EFRlc3QgQ0EsIExpbWl0ZWQxIzAhBgNVBAsMGlNlcnZlciBSZXNlYXJjaCBEZXBh
cnRtZW50MRAwDgYDVQQDDAdUZXN0IENBMR8wHQYJKoZIhvcNAQkBFhB0ZXN0QGV4
YW1wbGUuY29tMB4XDTIzMDMxMzE3NTgzNloXDTI0MDMxMjE3NTgzNlowYzELMAkG
A1UEBhMCVVMxCzAJBgNVBAgMAk1EMRIwEAYDVQQHDAlCYWx0aW1vcmUxHTAbBgNV
BAoMFFRlc3QgU2VydmVyLCBMaW1pdGVkMRQwEgYDVQQDDAtUZXN0IFNlcnZlcjCC
ASIwDQYJKoZIhvcNAQEBBQADggEPADCCAQoCggEBAKeFIBqBOb9Vpysrx7/6n+Im
fvIhYfrZOU6rDjhu/l3iWvyZG0Iwt+4hUEvMeb3unyxbaXaZtQBpT5xwe55Ovi5j
0GnsvLJNukD0ADgKdSaKF5/ltjeePjTaHlJ/6IiLMCY/Hl2zDRrIcAJl763RZqnj
69UtAphcVOHikTBXaH7zwo0UmscZDj+vAyThD8J9IrdrNsL9TOGp2R/87AXDld0X
lp7QmTAtB2+3auoRY7ayCVAcNYOmkJXCwXNqXYetJw+xUaNzxLUrBfg7SmMc3d23
L7RYSUI/fko+iWh/BrVSBD+M237OXh5kOa3QkyT3VciqToWhW6WNRM8VHmqxAP8C
AwEAAaOB2DCB1TAdBgNVHQ4EFgQUYLEU2nnaTlynj8nhT1PkCgNxDyIwHwYDVR0j
BBgwFoAUkKr4QraEAQkYOXahWb8ZKQSUbCswCQYDVR0TBAIwADALBgNVHQ8EBAMC
BaAwTQYDVR0RBEYwRIILZXhhbXBsZS5jb22CEndlYmFwcC5leGFtcGxlLmNvbYIQ
bWFpbC5leGFtcGxlLmNvbYIPZnRwLmV4YW1wbGUuY29tMCwGCWCGSAGG+EIBDQQf
Fh1PcGVuU1NMIEdlbmVyYXRlZCBDZXJ0aWZpY2F0ZTANBgkqhkiG9w0BAQsFAAOC
AgEARGoG97rLHfrJv6tifPDjLKMRKqoXhTq3ug+rA2VjqKjUM6aFFs62ljvc0sKK
NnX1e+aomx3nxvskl1FH3+Kue3YP7ymq9R8UtIkvFlH4GQU1Q8TqK2l9B1Y5c1a/
hmtakDIrCjomkvkBNzBNE0/1xjvcI/bLTvAKJXULJpJwEuyvGxshJb9bDIGXKyJX
wlrHasYd6Pm5ro7KURRPftQhQ6n3Q4dTg35u5QRlcgn2sPZFx5wxA4i7Vj3GqPov
80ySWomhXC4U3Y8bf2ejY1IRIBpbqaRogOxL7kD2ssih1dGv6949yMvydW4SUxtw
+dvvTeR2F4B6T75fstwzhYH8J4/azd1MvTFQ60rL25vCHNtDhuHKFR1YRzMUmoB+
U4tSHfmYhBDfWtcO78dtqhTwCfpnlFCP1eEHXIu7L3NJUO8e2RInIPu7UnAM1gDS
vWL/HYwHkcQ0Zd2b8UBn29et0XqW9GGRQvSdpHCoMXCXGhmdyg1BtMyVDQALa6Ao
znTuaXOz/FgTe0CbKZmUuiaRIDOJREZYsza+4xgga1I8epBfgqWq8MxuTSadbi22
LKZ8gKnWnTTjrLvw6HiNky9vMT9fkVz82Iy8Wo7wZ8HfawheNFaTGWrAUaSbsz84
LsEXRQB02T1Fsht26FJP5h9+Yse2gnhOQFbPa5P4fb4nCvI=
-----END CERTIFICATE-----
