Certificate:
    Data:
        Version: 3 (0x2)
        Serial Number: 4 (0x4)
    Signature Algorithm: sha256WithRSAEncryption
        Issuer: C=US, ST=Maryland, L=Baltimore, O=Test CA, Limited, OU=Server Research Department, CN=Test CA/emailAddress=test@example.com
        Validity
            Not Before: Apr 13 15:26:18 2023 GMT
            Not After : Apr 11 15:26:18 2030 GMT
        Subject: C=US, ST=MD, L=Baltimore, O=Test Server, Limited, CN=Test Server
        Subject Public Key Info:
            Public Key Algorithm: rsaEncryption
                Public-Key: (2048 bit)
                Modulus:
                    00:bc:3e:27:19:59:77:c2:15:5c:eb:38:79:5b:c5:
                    1f:88:9d:c8:62:62:f7:30:16:d5:b3:04:d7:66:3f:
                    06:b5:9c:11:bc:7b:9f:c4:76:1b:5d:62:ba:83:d0:
                    00:09:14:64:c8:d2:39:85:29:9e:cc:7a:71:a5:42:
                    e0:c6:13:28:dc:15:3a:24:d6:42:65:b4:e0:f0:3d:
                    b3:57:3f:b5:f5:75:bc:e3:9c:f8:78:15:d3:9d:9b:
                    93:ae:49:ae:fe:56:c3:9d:b1:22:bd:e4:9e:40:06:
                    06:3c:02:d5:41:03:ee:21:50:82:15:6a:df:7d:64:
                    15:84:9d:9f:e6:9b:29:86:24:fa:e7:27:62:61:1c:
                    09:bb:df:3d:a5:d7:2d:61:db:37:60:4c:d4:f7:21:
                    ce:6e:4a:24:d3:e7:04:56:4b:25:a9:f2:5a:d8:22:
                    1a:12:0c:47:2c:fe:01:3f:22:cc:11:32:d9:19:4e:
                    a4:8c:57:25:89:e0:a3:1d:66:dd:9b:e4:02:45:2f:
                    6f:03:5a:43:80:f5:d5:f3:5c:01:2c:94:8b:04:51:
                    a8:4c:88:17:ae:2c:df:13:99:1f:e8:82:30:2f:00:
                    c8:58:6b:2f:de:61:87:b8:57:eb:9b:45:94:b4:7a:
                    96:55:fa:fa:6c:ca:ea:75:52:7a:3e:f4:08:6f:80:
                    c9:d9
                Exponent: 65537 (0x10001)
        X509v3 extensions:
            X509v3 Subject Key Identifier:
                62:BA:9B:5B:26:92:0E:FE:FF:36:8F:80:C1:9B:39:73:61:F2:30:3A
            X509v3 Authority Key Identifier:
                keyid:11:3B:F9:7E:BE:CB:06:55:8D:30:EB:DA:12:8E:38:87:77:42:64:46

            X509v3 Basic Constraints:
                CA:FALSE
            X509v3 Key Usage:
                Digital Signature, Key Encipherment
            X509v3 Subject Alternative Name:
                DNS:example.com, DNS:webapp.example.com, DNS:virtual-server.example.com, DNS:ftp.example.com
            Netscape Comment:
                OpenSSL Generated Certificate
    Signature Algorithm: sha256WithRSAEncryption
         87:51:c9:6c:4d:70:82:4b:8e:e6:f4:dd:1a:10:1e:b2:e8:fc:
         a4:29:ac:a5:49:a8:c8:f4:00:48:f5:ac:dd:fb:10:ba:9f:8c:
         88:32:6e:60:92:6c:57:78:57:1d:0a:ae:93:09:7a:99:b1:72:
         0a:fc:91:e2:0d:0f:50:02:93:80:e3:02:0e:7b:eb:2b:a0:7a:
         61:01:70:ff:13:d4:da:ea:50:c2:92:ef:15:04:43:f0:1b:b9:
         1d:fb:fe:02:13:1b:fb:85:d9:72:14:02:67:d7:65:29:d9:ab:
         b1:90:d4:ab:53:bb:db:ed:3a:54:35:31:8d:76:c0:a6:d9:d5:
         0a:52:11:c3:56:40:3d:b0:49:eb:4b:af:bc:1e:c7:5f:f7:1c:
         5a:02:24:dc:67:a4:ef:f4:7b:7f:75:37:b4:1f:4f:bd:93:2a:
         62:e3:7d:b4:ea:a8:aa:8f:29:bc:6b:b2:0f:06:7e:db:c5:6f:
         b0:5a:b6:37:69:b6:1b:86:26:10:e7:bf:f4:19:01:35:b8:5a:
         f6:0b:3d:09:c4:a3:57:20:32:32:7c:46:e6:cb:64:04:c6:a5:
         18:51:47:c9:58:12:3e:9e:c3:3f:b4:07:51:a7:85:20:6a:cd:
         da:a6:e3:11:fd:70:b4:c8:5a:2a:5b:fc:d3:6a:58:ce:98:f7:
         46:66:4b:c6:91:2a:b8:cb:38:07:46:10:3c:56:51:28:98:5a:
         d8:21:71:1c:6a:dc:ce:f2:e9:32:01:93:4d:58:ac:75:09:e1:
         77:74:c5:9c:9e:f4:fa:6a:6c:e5:24:cf:f0:b7:42:54:7a:36:
         bb:af:f6:a7:3e:2a:14:27:b7:56:ef:20:10:1a:90:50:05:40:
         96:32:8e:17:4e:e5:e6:65:36:c4:e7:15:5f:92:8e:e0:60:5c:
         35:8f:62:6b:e0:cd:96:67:3f:87:aa:5b:cc:1a:26:9b:d4:e6:
         1d:3a:39:d9:f0:2a:c9:13:36:54:ae:1f:84:cb:e2:ed:65:37:
         65:c8:58:9b:6e:21:62:06:68:01:b1:22:f8:21:ef:6d:1e:c2:
         17:91:18:8d:03:27:f9:d8:fb:a9:7b:8d:f3:3b:d4:12:97:0f:
         86:62:98:b2:4a:0f:b9:74:ca:8f:6e:9f:c8:5e:0d:32:59:d4:
         a9:6d:03:f5:67:7c:51:55:1b:3a:83:53:13:2b:86:00:50:bb:
         c8:76:05:ad:76:41:95:18:fb:60:81:18:64:98:53:26:9a:6c:
         e1:81:b1:d0:32:8f:8b:f3:81:06:c9:ac:88:66:cd:57:4b:f5:
         b6:8e:56:2f:e9:ef:db:60:5a:31:fe:07:40:e5:ab:05:5e:98:
         ef:2e:95:f9:7c:2b:2d:4d
-----BEGIN CERTIFICATE-----
MIIFaTCCA1GgAwIBAgIBBDANBgkqhkiG9w0BAQsFADCBpzELMAkGA1UEBhMCVVMx
ETAPBgNVBAgMCE1hcnlsYW5kMRIwEAYDVQQHDAlCYWx0aW1vcmUxGTAXBgNVBAoM
EFRlc3QgQ0EsIExpbWl0ZWQxIzAhBgNVBAsMGlNlcnZlciBSZXNlYXJjaCBEZXBh
cnRtZW50MRAwDgYDVQQDDAdUZXN0IENBMR8wHQYJKoZIhvcNAQkBFhB0ZXN0QGV4
YW1wbGUuY29tMB4XDTIzMDQxMzE1MjYxOFoXDTMwMDQxMTE1MjYxOFowYzELMAkG
A1UEBhMCVVMxCzAJBgNVBAgMAk1EMRIwEAYDVQQHDAlCYWx0aW1vcmUxHTAbBgNV
BAoMFFRlc3QgU2VydmVyLCBMaW1pdGVkMRQwEgYDVQQDDAtUZXN0IFNlcnZlcjCC
ASIwDQYJKoZIhvcNAQEBBQADggEPADCCAQoCggEBALw+JxlZd8IVXOs4eVvFH4id
yGJi9zAW1bME12Y/BrWcEbx7n8R2G11iuoPQAAkUZMjSOYUpnsx6caVC4MYTKNwV
OiTWQmW04PA9s1c/tfV1vOOc+HgV052bk65Jrv5Ww52xIr3knkAGBjwC1UED7iFQ
ghVq331kFYSdn+abKYYk+ucnYmEcCbvfPaXXLWHbN2BM1Pchzm5KJNPnBFZLJany
WtgiGhIMRyz+AT8izBEy2RlOpIxXJYngox1m3ZvkAkUvbwNaQ4D11fNcASyUiwRR
qEyIF64s3xOZH+iCMC8AyFhrL95hh7hX65tFlLR6llX6+mzK6nVSej70CG+AydkC
AwEAAaOB4jCB3zAdBgNVHQ4EFgQUYrqbWyaSDv7/No+AwZs5c2HyMDowHwYDVR0j
BBgwFoAUETv5fr7LBlWNMOvaEo44h3dCZEYwCQYDVR0TBAIwADALBgNVHQ8EBAMC
BaAwVwYDVR0RBFAwToILZXhhbXBsZS5jb22CEndlYmFwcC5leGFtcGxlLmNvbYIa
dmlydHVhbC1zZXJ2ZXIuZXhhbXBsZS5jb22CD2Z0cC5leGFtcGxlLmNvbTAsBglg
hkgBhvhCAQ0EHxYdT3BlblNTTCBHZW5lcmF0ZWQgQ2VydGlmaWNhdGUwDQYJKoZI
hvcNAQELBQADggIBAIdRyWxNcIJLjub03RoQHrLo/KQprKVJqMj0AEj1rN37ELqf
jIgybmCSbFd4Vx0KrpMJepmxcgr8keIND1ACk4DjAg576yugemEBcP8T1NrqUMKS
7xUEQ/AbuR37/gITG/uF2XIUAmfXZSnZq7GQ1KtTu9vtOlQ1MY12wKbZ1QpSEcNW
QD2wSetLr7wex1/3HFoCJNxnpO/0e391N7QfT72TKmLjfbTqqKqPKbxrsg8GftvF
b7BatjdpthuGJhDnv/QZATW4WvYLPQnEo1cgMjJ8RubLZATGpRhRR8lYEj6ewz+0
B1GnhSBqzdqm4xH9cLTIWipb/NNqWM6Y90ZmS8aRKrjLOAdGEDxWUSiYWtghcRxq
3M7y6TIBk01YrHUJ4Xd0xZye9PpqbOUkz/C3QlR6Nruv9qc+KhQnt1bvIBAakFAF
QJYyjhdO5eZlNsTnFV+SjuBgXDWPYmvgzZZnP4eqW8waJpvU5h06OdnwKskTNlSu
H4TL4u1lN2XIWJtuIWIGaAGxIvgh720ewheRGI0DJ/nY+6l7jfM71BKXD4ZimLJK
D7l0yo9un8heDTJZ1KltA/VnfFFVGzqDUxMrhgBQu8h2Ba12QZUY+2CBGGSYUyaa
bOGBsdAyj4vzgQbJrIhmzVdL9baOVi/p79tgWjH+B0DlqwVemO8ulfl8Ky1N
-----END CERTIFICATE-----
