Certificate:
    Data:
        Version: 3 (0x2)
        Serial Number: 2 (0x2)
    Signature Algorithm: sha256WithRSAEncryption
        Issuer: C=US, ST=Maryland, L=Baltimore, O=Test CA, Limited, OU=Server Research Department, CN=Test CA/emailAddress=test@example.com
        Validity
            Not Before: Mar 13 17:58:49 2023 GMT
            Not After : Mar 12 17:58:49 2024 GMT
        Subject: C=US, ST=MD, L=Baltimore, O=Test Server, Limited, CN=Test Server
        Subject Public Key Info:
            Public Key Algorithm: rsaEncryption
                Public-Key: (2048 bit)
                Modulus:
                    00:b2:0f:05:bb:7a:78:62:15:44:db:ae:fc:c1:4a:
                    84:94:dc:04:2e:47:64:f3:16:f1:db:d6:87:25:72:
                    ac:3d:75:d1:66:4c:6a:7b:b6:40:6b:83:41:c1:0d:
                    35:08:11:23:a0:e1:60:17:41:0f:98:28:aa:06:28:
                    bc:06:3b:70:49:4d:93:09:84:0e:7b:83:ee:2e:51:
                    93:5f:c3:d6:8c:4a:c9:7b:88:08:2e:58:1a:d4:01:
                    2c:e9:35:9d:37:57:28:54:ff:10:95:47:d6:e4:4d:
                    4d:5f:ea:eb:4e:59:15:d7:df:83:1d:78:f7:97:96:
                    69:84:61:ff:ed:b9:b9:ab:b5:51:aa:f1:29:87:07:
                    4e:f2:40:d6:dd:07:e8:1b:38:fb:01:90:a5:91:dd:
                    20:a5:23:7c:2a:ad:d0:06:12:b4:d2:8f:14:9b:95:
                    79:38:54:27:62:1f:7a:27:d7:39:11:fe:ec:43:04:
                    1e:58:fe:1b:98:0a:78:f1:2e:fc:9f:aa:3a:ea:c4:
                    b4:c1:e2:9c:97:23:59:29:dc:ae:e4:42:d8:0b:6d:
                    d3:f5:ee:7b:70:48:22:79:c4:12:cf:b1:9e:32:47:
                    c0:e0:77:c9:52:59:0d:54:7f:0c:36:e8:ee:7e:1a:
                    13:f1:cd:6b:4a:56:63:0a:b2:1b:b2:55:64:0c:45:
                    1f:81
                Exponent: 65537 (0x10001)
        X509v3 extensions:
            X509v3 Subject Key Identifier:
                32:E3:A1:81:20:9D:8A:37:D3:F4:04:A4:18:20:3E:97:29:A3:D6:9B
            X509v3 Authority Key Identifier:
                keyid:90:AA:F8:42:B6:84:01:09:18:39:76:A1:59:BF:19:29:04:94:6C:2B

            X509v3 Basic Constraints:
                CA:FALSE
            X509v3 Key Usage:
                Digital Signature, Key Encipherment
            X509v3 Subject Alternative Name:
                DNS:example.com, DNS:webapp.example.com, DNS:mail.example.com, DNS:ftp.example.com
            Netscape Comment:
                OpenSSL Generated Certificate
    Signature Algorithm: sha256WithRSAEncryption
         50:37:17:f3:ee:44:32:55:d7:29:5e:79:d2:f7:c2:12:f2:dd:
         5f:63:5e:fb:2d:97:0f:69:0a:f9:62:7f:2e:b0:e7:d5:00:3e:
         f4:78:03:0d:fa:ac:de:c1:cb:69:c0:f3:c8:15:b0:71:1e:79:
         f7:b8:0a:b9:76:e9:54:da:5e:20:04:7a:4b:f1:99:e1:fa:2b:
         3c:63:4a:67:a8:ef:7b:99:0d:95:fc:65:c4:b3:ff:25:25:97:
         fc:33:45:a7:07:94:2f:09:9a:24:82:24:27:09:66:31:fe:cd:
         04:7c:4d:e1:2e:82:b0:a8:e9:37:e4:7b:6c:4c:06:19:04:0f:
         82:2d:8b:91:4c:4e:fd:87:ac:56:77:02:da:3f:36:08:0d:57:
         78:f0:14:2f:31:a0:74:30:cd:6a:58:de:9e:fa:a7:ce:a8:f5:
         7f:f4:2c:70:3c:a7:86:3d:2e:49:c8:06:a2:91:88:5e:98:d2:
         d6:13:97:13:2f:53:e0:42:16:e1:e0:1e:09:e8:39:d7:4f:0b:
         14:d0:c6:33:28:08:f7:01:7c:69:a3:21:cf:8f:2d:bf:08:64:
         1a:fd:88:34:f9:7a:fd:b2:71:ba:9e:32:37:44:bb:6e:e3:a0:
         35:6a:e8:bf:cb:20:35:53:95:4d:46:ae:f6:a5:ab:d6:a1:13:
         e2:ab:55:8e:eb:a2:25:d0:e0:ff:d3:d5:d5:7f:15:d2:72:b1:
         a9:27:05:f5:fa:20:4c:74:f2:e4:af:8f:cf:a0:c4:03:86:f7:
         f2:90:1f:77:87:92:1e:80:2c:8f:e9:26:a3:39:d7:04:9e:e5:
         2d:04:bb:05:43:a4:53:2b:b0:ec:f1:d0:5e:4a:81:64:84:3f:
         ff:0a:32:74:d7:39:a7:54:83:ac:61:54:77:5f:fc:a2:5c:a3:
         98:9f:0c:fe:82:aa:40:3e:b2:93:f2:cf:4e:d8:21:d1:e0:16:
         ac:cd:3c:57:88:e4:43:77:1a:1b:b8:d4:2b:fa:a6:93:60:d1:
         b5:7f:ce:e0:6d:2d:21:cf:e2:2e:17:3b:d9:7a:62:78:9f:8f:
         26:1e:3e:e4:c6:13:22:12:9c:cc:9d:ad:34:6f:ac:bb:91:35:
         e1:5e:22:fb:fe:db:5f:32:96:3b:e1:e2:e1:e1:6f:b6:29:20:
         a4:df:9b:21:13:5c:88:5c:f6:f6:22:8f:a7:35:f4:3c:0c:e0:
         10:88:35:72:4f:ff:38:44:3e:4f:7f:4b:e6:54:c0:41:2c:1c:
         aa:28:92:a9:78:11:c9:31:99:b2:2f:6f:2b:b1:34:01:8c:f2:
         92:44:7b:a5:a4:9a:31:96:12:24:02:bd:43:69:2a:a9:71:ff:
         bc:90:b0:d0:c4:fe:0c:6d
-----BEGIN CERTIFICATE-----
MIIFXzCCA0egAwIBAgIBAjANBgkqhkiG9w0BAQsFADCBpzELMAkGA1UEBhMCVVMx
ETAPBgNVBAgMCE1hcnlsYW5kMRIwEAYDVQQHDAlCYWx0aW1vcmUxGTAXBgNVBAoM
EFRlc3QgQ0EsIExpbWl0ZWQxIzAhBgNVBAsMGlNlcnZlciBSZXNlYXJjaCBEZXBh
cnRtZW50MRAwDgYDVQQDDAdUZXN0IENBMR8wHQYJKoZIhvcNAQkBFhB0ZXN0QGV4
YW1wbGUuY29tMB4XDTIzMDMxMzE3NTg0OVoXDTI0MDMxMjE3NTg0OVowYzELMAkG
A1UEBhMCVVMxCzAJBgNVBAgMAk1EMRIwEAYDVQQHDAlCYWx0aW1vcmUxHTAbBgNV
BAoMFFRlc3QgU2VydmVyLCBMaW1pdGVkMRQwEgYDVQQDDAtUZXN0IFNlcnZlcjCC
ASIwDQYJKoZIhvcNAQEBBQADggEPADCCAQoCggEBALIPBbt6eGIVRNuu/MFKhJTc
BC5HZPMW8dvWhyVyrD110WZManu2QGuDQcENNQgRI6DhYBdBD5goqgYovAY7cElN
kwmEDnuD7i5Rk1/D1oxKyXuICC5YGtQBLOk1nTdXKFT/EJVH1uRNTV/q605ZFdff
gx1495eWaYRh/+25uau1UarxKYcHTvJA1t0H6Bs4+wGQpZHdIKUjfCqt0AYStNKP
FJuVeThUJ2IfeifXORH+7EMEHlj+G5gKePEu/J+qOurEtMHinJcjWSncruRC2Att
0/Xue3BIInnEEs+xnjJHwOB3yVJZDVR/DDbo7n4aE/HNa0pWYwqyG7JVZAxFH4EC
AwEAAaOB2DCB1TAdBgNVHQ4EFgQUMuOhgSCdijfT9ASkGCA+lymj1pswHwYDVR0j
BBgwFoAUkKr4QraEAQkYOXahWb8ZKQSUbCswCQYDVR0TBAIwADALBgNVHQ8EBAMC
BaAwTQYDVR0RBEYwRIILZXhhbXBsZS5jb22CEndlYmFwcC5leGFtcGxlLmNvbYIQ
bWFpbC5leGFtcGxlLmNvbYIPZnRwLmV4YW1wbGUuY29tMCwGCWCGSAGG+EIBDQQf
Fh1PcGVuU1NMIEdlbmVyYXRlZCBDZXJ0aWZpY2F0ZTANBgkqhkiG9w0BAQsFAAOC
AgEAUDcX8+5EMlXXKV550vfCEvLdX2Ne+y2XD2kK+WJ/LrDn1QA+9HgDDfqs3sHL
acDzyBWwcR5597gKuXbpVNpeIAR6S/GZ4forPGNKZ6jve5kNlfxlxLP/JSWX/DNF
pweULwmaJIIkJwlmMf7NBHxN4S6CsKjpN+R7bEwGGQQPgi2LkUxO/YesVncC2j82
CA1XePAULzGgdDDNaljenvqnzqj1f/QscDynhj0uScgGopGIXpjS1hOXEy9T4EIW
4eAeCeg5108LFNDGMygI9wF8aaMhz48tvwhkGv2INPl6/bJxup4yN0S7buOgNWro
v8sgNVOVTUau9qWr1qET4qtVjuuiJdDg/9PV1X8V0nKxqScF9fogTHTy5K+Pz6DE
A4b38pAfd4eSHoAsj+kmoznXBJ7lLQS7BUOkUyuw7PHQXkqBZIQ//woydNc5p1SD
rGFUd1/8olyjmJ8M/oKqQD6yk/LPTtgh0eAWrM08V4jkQ3caG7jUK/qmk2DRtX/O
4G0tIc/iLhc72XpieJ+PJh4+5MYTIhKczJ2tNG+su5E14V4i+/7bXzKWO+Hi4eFv
tikgpN+bIRNciFz29iKPpzX0PAzgEIg1ck//OEQ+T39L5lTAQSwcqiiSqXgRyTGZ
si9vK7E0AYzykkR7paSaMZYSJAK9Q2kqqXH/vJCw0MT+DG0=
-----END CERTIFICATE-----
